ARM GAS  C:\Users\aless\AppData\Local\Temp\ccnwhxJ6.s 			page 1


   1              		.syntax unified
   2              		.cpu cortex-m3
   3              		.fpu softvfp
   4              		.eabi_attribute 20, 1
   5              		.eabi_attribute 21, 1
   6              		.eabi_attribute 23, 3
   7              		.eabi_attribute 24, 1
   8              		.eabi_attribute 25, 1
   9              		.eabi_attribute 26, 1
  10              		.eabi_attribute 30, 1
  11              		.eabi_attribute 34, 1
  12              		.eabi_attribute 18, 4
  13              		.thumb
  14              		.syntax unified
  15              		.file	"main.c"
  16              		.text
  17              	.Ltext0:
  18              		.cfi_sections	.debug_frame
  19              		.section	.text.UART_Debug_BCP,"ax",%progbits
  20              		.align	2
  21              		.global	UART_Debug_BCP
  22              		.thumb
  23              		.thumb_func
  24              		.type	UART_Debug_BCP, %function
  25              	UART_Debug_BCP:
  26              	.LFB65:
  27              		.file 1 "main.c"
   1:main.c        **** /**
   2:main.c        **** * \brief Main source file for the AY1920_II_HW_05_PROJ_3 alt
   3:main.c        **** *
   4:main.c        **** * Further development of project 2.3
   5:main.c        **** * Data is actually sent as float over UART [m/s^2]
   6:main.c        **** *
   7:main.c        **** * \author Alessio Ratti
   8:main.c        **** * \date , 2020
   9:main.c        **** */
  10:main.c        **** 
  11:main.c        **** // Include required header files
  12:main.c        **** #include "I2C_Interface.h"
  13:main.c        **** #include "project.h"
  14:main.c        **** #include "stdio.h"
  15:main.c        **** #include "Regs.h"
  16:main.c        **** 
  17:main.c        **** // Set normal mode to the accelerator (3-axes, 100Hz)
  18:main.c        **** #define LIS3DH_NORMAL_MODE_CTRL_REG1 0x57
  19:main.c        **** // Set +-4g FSR and high resolution
  20:main.c        **** #define LIS3DH_CTRL_REG4_HR 0x18
  21:main.c        **** 
  22:main.c        **** // Bridge Control Panel
  23:main.c        **** #define HEAD 0xA0
  24:main.c        **** #define TAIL 0xC0
  25:main.c        **** 
  26:main.c        **** // Acc defines
  27:main.c        **** #define ZYXDA 3             // new data available
  28:main.c        **** #define AXES_ACTIVE 3       // all axes active
  29:main.c        **** #define BYTES_PER_AXIS 2    // L & H regs
  30:main.c        **** 
ARM GAS  C:\Users\aless\AppData\Local\Temp\ccnwhxJ6.s 			page 2


  31:main.c        **** // Conversion (still avoiding mg per level)
  32:main.c        **** #define levels_per_g 511    // levels -> g
  33:main.c        **** #define g_CONST 9.807       // gravitational constant
  34:main.c        **** 
  35:main.c        **** // Custom PutArray function prototype
  36:main.c        **** void UART_Debug_BCP(const uint8 string[], uint8 byteCount, uint8 head, uint8 tail);
  37:main.c        **** 
  38:main.c        **** int main(void)
  39:main.c        **** {
  40:main.c        ****     CyGlobalIntEnable; /* Enable global interrupts. */
  41:main.c        ****     
  42:main.c        ****     I2C_Peripheral_Start();
  43:main.c        ****     UART_Debug_Start();
  44:main.c        ****     
  45:main.c        ****     CyDelay(5); //"The boot procedure is complete about 5 milliseconds after device power-up."
  46:main.c        ****     
  47:main.c        ****     // Buffer string to print out messages on the UART
  48:main.c        ****     char message[50];
  49:main.c        **** 
  50:main.c        ****     // Check which devices are present on the I2C bus
  51:main.c        ****     for (int i = 0 ; i < 128; i++)
  52:main.c        ****     {
  53:main.c        ****         if (I2C_Peripheral_IsDeviceConnected(i))
  54:main.c        ****         {
  55:main.c        ****             // print out the address is hex format
  56:main.c        ****             sprintf(message, "Device 0x%02X is connected\r\n", i);
  57:main.c        ****             UART_Debug_PutString(message); 
  58:main.c        ****         }
  59:main.c        ****     }
  60:main.c        ****     
  61:main.c        ****     // Support variable for error flags
  62:main.c        ****     uint8_t error;
  63:main.c        ****     
  64:main.c        ****     /******************************************/
  65:main.c        ****     /*            CTRL_REG1 config            */
  66:main.c        ****     /******************************************/
  67:main.c        ****     error = I2C_Peripheral_WriteRegister(LIS3DH_DEVICE_ADDRESS,
  68:main.c        ****                                          LIS3DH_CTRL_REG1,
  69:main.c        ****                                          LIS3DH_NORMAL_MODE_CTRL_REG1);
  70:main.c        **** 
  71:main.c        ****     if (error == NO_ERROR)
  72:main.c        ****     {
  73:main.c        ****         UART_Debug_PutString("CONTROL REGISTER 1 successfully written\r\n"); 
  74:main.c        ****     }
  75:main.c        ****     else
  76:main.c        ****     {
  77:main.c        ****         UART_Debug_PutString("ERROR occurred during I2C comm to set control register 1\r\n");   
  78:main.c        ****     }
  79:main.c        ****     
  80:main.c        ****     /******************************************/
  81:main.c        ****     /*            CTRL_REG4 config            */
  82:main.c        ****     /******************************************/
  83:main.c        ****     error = I2C_Peripheral_WriteRegister(LIS3DH_DEVICE_ADDRESS,
  84:main.c        ****                                          LIS3DH_CTRL_REG4,
  85:main.c        ****                                          LIS3DH_CTRL_REG4_HR);
  86:main.c        **** 
  87:main.c        ****     if (error == NO_ERROR)
ARM GAS  C:\Users\aless\AppData\Local\Temp\ccnwhxJ6.s 			page 3


  88:main.c        ****     {
  89:main.c        ****         UART_Debug_PutString("CONTROL REGISTER 4 successfully written\r\n"); 
  90:main.c        ****     }
  91:main.c        ****     else
  92:main.c        ****     {
  93:main.c        ****         UART_Debug_PutString("ERROR occurred during I2C comm to set control register 4\r\n");   
  94:main.c        ****     }
  95:main.c        ****     
  96:main.c        ****     /* Private variables ---------------------------------------------------------*/
  97:main.c        ****     // ACCELERATION
  98:main.c        ****     uint8_t status_reg;                         // Store status register current value
  99:main.c        ****     uint8_t AccelerationData[AXES_ACTIVE*2];    // Raw acceleration data in 8-bit
 100:main.c        ****     int16_t OutAcc[AXES_ACTIVE];                // Right-aligned 16-bit acceleration data in mg
 101:main.c        ****     
 102:main.c        ****     // union of float exactly matched with 4 uint8_t in the memory
 103:main.c        ****     union {
 104:main.c        ****         float axis;
 105:main.c        ****         int32_t middle;
 106:main.c        ****         uint8_t init[2];
 107:main.c        ****         uint8_t bytes[4];
 108:main.c        ****     } axes[3];
 109:main.c        ****     
 110:main.c        ****     // UART (no variables needed thanks to the structure)
 111:main.c        ****     
 112:main.c        ****     for(;;)
 113:main.c        ****     {
 114:main.c        ****         error = I2C_Peripheral_ReadRegister(LIS3DH_DEVICE_ADDRESS,
 115:main.c        ****                                             LIS3DH_STATUS_REG,
 116:main.c        ****                                             &status_reg);
 117:main.c        ****         if(status_reg & (1<<ZYXDA))
 118:main.c        ****         {
 119:main.c        ****             // Read aceleration
 120:main.c        ****             error = I2C_Peripheral_ReadRegisterMulti(LIS3DH_DEVICE_ADDRESS,
 121:main.c        ****                                                      OUT_X_L,
 122:main.c        ****                                                      AXES_ACTIVE*BYTES_PER_AXIS,
 123:main.c        ****                                                      AccelerationData);
 124:main.c        ****             if (error == NO_ERROR)
 125:main.c        ****             {
 126:main.c        ****                 // From raw to signed integer
 127:main.c        ****                 OutAcc[0] = (int16_t) (AccelerationData[0] | (AccelerationData[1]<<8))>>4;
 128:main.c        ****                 OutAcc[1] = (int16_t) (AccelerationData[2] | (AccelerationData[3]<<8))>>4;
 129:main.c        ****                 OutAcc[2] = (int16_t) (AccelerationData[4] | (AccelerationData[5]<<8))>>4;
 130:main.c        ****                 
 131:main.c        ****                 // Convert to m/s^2 as float
 132:main.c        ****                 // from signed integer to float (automatic conversion into 4 blocks of uint8_t)
 133:main.c        ****                 axes[0].axis = (float) OutAcc[0]*g_CONST/levels_per_g;
 134:main.c        ****                 axes[1].axis = (float) OutAcc[1]*g_CONST/levels_per_g;
 135:main.c        ****                 axes[2].axis = (float) OutAcc[2]*g_CONST/levels_per_g;
 136:main.c        ****                 
 137:main.c        ****                 // Debug: decimal places truncated for the printf
 138:main.c        ****                 // sprintf(message, "X: %+03.3f Y: %+03.3f Z: %+03.3f\r\n", axes[0].axis, axes[1].a
 139:main.c        ****                 // UART_Debug_PutString(message);
 140:main.c        ****                 
 141:main.c        ****                 /* Thanks to the union structure there's no need to convert to uint8,
 142:main.c        ****                  * moreover, the values are allocated consecutively in the memory,
 143:main.c        ****                  * no need for further re-arrangement with the help of the custom
 144:main.c        ****                  * function as well.
ARM GAS  C:\Users\aless\AppData\Local\Temp\ccnwhxJ6.s 			page 4


 145:main.c        ****                 */
 146:main.c        ****                 UART_Debug_BCP(&axes[0].bytes[0], AXES_ACTIVE*4, HEAD, TAIL);
 147:main.c        ****             }
 148:main.c        ****             else
 149:main.c        ****             {
 150:main.c        ****                 UART_Debug_PutString("Error occurred while acquiring acceleration data\r\n");   
 151:main.c        ****             }
 152:main.c        ****         }
 153:main.c        ****     }
 154:main.c        **** }
 155:main.c        **** 
 156:main.c        **** // Custom version of the PutArray function
 157:main.c        **** // it avoids having to deal with head and tail (I can avoid placing the data in a separated array)
 158:main.c        **** void UART_Debug_BCP(const uint8 string[], uint8 byteCount, uint8 head, uint8 tail)
 159:main.c        **** {
  28              		.loc 1 159 0
  29              		.cfi_startproc
  30              		@ args = 0, pretend = 0, frame = 0
  31              		@ frame_needed = 0, uses_anonymous_args = 0
  32              	.LVL0:
  33 0000 F8B5     		push	{r3, r4, r5, r6, r7, lr}
  34              		.cfi_def_cfa_offset 24
  35              		.cfi_offset 3, -24
  36              		.cfi_offset 4, -20
  37              		.cfi_offset 5, -16
  38              		.cfi_offset 6, -12
  39              		.cfi_offset 7, -8
  40              		.cfi_offset 14, -4
  41              	.LVL1:
 160:main.c        ****     uint8 bufIndex = 0u;
 161:main.c        **** 
 162:main.c        ****     /* If not Initialized then skip this function */
 163:main.c        ****     if(UART_Debug_initVar != 0u)
  42              		.loc 1 163 0
  43 0002 0B4C     		ldr	r4, .L6
  44 0004 2478     		ldrb	r4, [r4]	@ zero_extendqisi2
  45 0006 8CB1     		cbz	r4, .L1
  46 0008 1F46     		mov	r7, r3
  47 000a 0D46     		mov	r5, r1
  48 000c 0646     		mov	r6, r0
 164:main.c        ****     {
 165:main.c        ****         UART_Debug_PutChar(head);   // tranmit head
  49              		.loc 1 165 0
  50 000e 1046     		mov	r0, r2
  51              	.LVL2:
  52 0010 FFF7FEFF 		bl	UART_Debug_PutChar
  53              	.LVL3:
 160:main.c        ****     uint8 bufIndex = 0u;
  54              		.loc 1 160 0
  55 0014 0024     		movs	r4, #0
 166:main.c        ****         while(bufIndex < byteCount) // transmit body
  56              		.loc 1 166 0
  57 0016 04E0     		b	.L3
  58              	.LVL4:
  59              	.L4:
 167:main.c        ****         {
 168:main.c        ****             UART_Debug_PutChar(string[bufIndex]);
ARM GAS  C:\Users\aless\AppData\Local\Temp\ccnwhxJ6.s 			page 5


  60              		.loc 1 168 0
  61 0018 305D     		ldrb	r0, [r6, r4]	@ zero_extendqisi2
  62 001a FFF7FEFF 		bl	UART_Debug_PutChar
  63              	.LVL5:
 169:main.c        ****             bufIndex++;
  64              		.loc 1 169 0
  65 001e 0134     		adds	r4, r4, #1
  66              	.LVL6:
  67 0020 E4B2     		uxtb	r4, r4
  68              	.LVL7:
  69              	.L3:
 166:main.c        ****         while(bufIndex < byteCount) // transmit body
  70              		.loc 1 166 0
  71 0022 AC42     		cmp	r4, r5
  72 0024 F8D3     		bcc	.L4
 170:main.c        ****         }
 171:main.c        ****         UART_Debug_PutChar(tail);   // transmit tail
  73              		.loc 1 171 0
  74 0026 3846     		mov	r0, r7
  75 0028 FFF7FEFF 		bl	UART_Debug_PutChar
  76              	.LVL8:
  77              	.L1:
  78 002c F8BD     		pop	{r3, r4, r5, r6, r7, pc}
  79              	.L7:
  80 002e 00BF     		.align	2
  81              	.L6:
  82 0030 00000000 		.word	UART_Debug_initVar
  83              		.cfi_endproc
  84              	.LFE65:
  85              		.size	UART_Debug_BCP, .-UART_Debug_BCP
  86              		.global	__aeabi_i2f
  87              		.global	__aeabi_f2d
  88              		.global	__aeabi_dmul
  89              		.global	__aeabi_ddiv
  90              		.global	__aeabi_d2f
  91              		.section	.text.main,"ax",%progbits
  92              		.align	2
  93              		.global	main
  94              		.thumb
  95              		.thumb_func
  96              		.type	main, %function
  97              	main:
  98              	.LFB64:
  39:main.c        ****     CyGlobalIntEnable; /* Enable global interrupts. */
  99              		.loc 1 39 0
 100              		.cfi_startproc
 101              		@ args = 0, pretend = 0, frame = 72
 102              		@ frame_needed = 0, uses_anonymous_args = 0
 103 0000 30B5     		push	{r4, r5, lr}
 104              		.cfi_def_cfa_offset 12
 105              		.cfi_offset 4, -12
 106              		.cfi_offset 5, -8
 107              		.cfi_offset 14, -4
 108 0002 93B0     		sub	sp, sp, #76
 109              		.cfi_def_cfa_offset 88
  40:main.c        ****     
 110              		.loc 1 40 0
ARM GAS  C:\Users\aless\AppData\Local\Temp\ccnwhxJ6.s 			page 6


 111              		.syntax unified
 112              	@ 40 "main.c" 1
 113 0004 62B6     		CPSIE   i
 114              	@ 0 "" 2
  42:main.c        ****     UART_Debug_Start();
 115              		.loc 1 42 0
 116              		.thumb
 117              		.syntax unified
 118 0006 FFF7FEFF 		bl	I2C_Peripheral_Start
 119              	.LVL9:
  43:main.c        ****     
 120              		.loc 1 43 0
 121 000a FFF7FEFF 		bl	UART_Debug_Start
 122              	.LVL10:
  45:main.c        ****     
 123              		.loc 1 45 0
 124 000e 0520     		movs	r0, #5
 125 0010 FFF7FEFF 		bl	CyDelay
 126              	.LVL11:
 127              	.LBB2:
  51:main.c        ****     {
 128              		.loc 1 51 0
 129 0014 0024     		movs	r4, #0
 130 0016 0CE0     		b	.L9
 131              	.LVL12:
 132              	.L11:
  53:main.c        ****         {
 133              		.loc 1 53 0
 134 0018 E0B2     		uxtb	r0, r4
 135 001a FFF7FEFF 		bl	I2C_Peripheral_IsDeviceConnected
 136              	.LVL13:
 137 001e 38B1     		cbz	r0, .L10
  56:main.c        ****             UART_Debug_PutString(message); 
 138              		.loc 1 56 0
 139 0020 2246     		mov	r2, r4
 140 0022 4B49     		ldr	r1, .L21+16
 141 0024 05A8     		add	r0, sp, #20
 142 0026 FFF7FEFF 		bl	sprintf
 143              	.LVL14:
  57:main.c        ****         }
 144              		.loc 1 57 0
 145 002a 05A8     		add	r0, sp, #20
 146 002c FFF7FEFF 		bl	UART_Debug_PutString
 147              	.LVL15:
 148              	.L10:
  51:main.c        ****     {
 149              		.loc 1 51 0 discriminator 2
 150 0030 0134     		adds	r4, r4, #1
 151              	.LVL16:
 152              	.L9:
  51:main.c        ****     {
 153              		.loc 1 51 0 is_stmt 0 discriminator 1
 154 0032 7F2C     		cmp	r4, #127
 155 0034 F0DD     		ble	.L11
 156              	.LBE2:
  67:main.c        ****                                          LIS3DH_CTRL_REG1,
 157              		.loc 1 67 0 is_stmt 1
ARM GAS  C:\Users\aless\AppData\Local\Temp\ccnwhxJ6.s 			page 7


 158 0036 5722     		movs	r2, #87
 159 0038 2021     		movs	r1, #32
 160 003a 1820     		movs	r0, #24
 161 003c FFF7FEFF 		bl	I2C_Peripheral_WriteRegister
 162              	.LVL17:
  71:main.c        ****     {
 163              		.loc 1 71 0
 164 0040 18B9     		cbnz	r0, .L12
  73:main.c        ****     }
 165              		.loc 1 73 0
 166 0042 4448     		ldr	r0, .L21+20
 167              	.LVL18:
 168 0044 FFF7FEFF 		bl	UART_Debug_PutString
 169              	.LVL19:
 170 0048 02E0     		b	.L13
 171              	.LVL20:
 172              	.L12:
  77:main.c        ****     }
 173              		.loc 1 77 0
 174 004a 4348     		ldr	r0, .L21+24
 175              	.LVL21:
 176 004c FFF7FEFF 		bl	UART_Debug_PutString
 177              	.LVL22:
 178              	.L13:
  83:main.c        ****                                          LIS3DH_CTRL_REG4,
 179              		.loc 1 83 0
 180 0050 1822     		movs	r2, #24
 181 0052 2321     		movs	r1, #35
 182 0054 1046     		mov	r0, r2
 183 0056 FFF7FEFF 		bl	I2C_Peripheral_WriteRegister
 184              	.LVL23:
  87:main.c        ****     {
 185              		.loc 1 87 0
 186 005a 18B9     		cbnz	r0, .L14
  89:main.c        ****     }
 187              		.loc 1 89 0
 188 005c 3F48     		ldr	r0, .L21+28
 189              	.LVL24:
 190 005e FFF7FEFF 		bl	UART_Debug_PutString
 191              	.LVL25:
 192 0062 02E0     		b	.L17
 193              	.LVL26:
 194              	.L14:
  93:main.c        ****     }
 195              		.loc 1 93 0
 196 0064 3E48     		ldr	r0, .L21+32
 197              	.LVL27:
 198 0066 FFF7FEFF 		bl	UART_Debug_PutString
 199              	.LVL28:
 200              	.L17:
 114:main.c        ****                                             LIS3DH_STATUS_REG,
 201              		.loc 1 114 0
 202 006a 0DF11302 		add	r2, sp, #19
 203 006e 2721     		movs	r1, #39
 204 0070 1820     		movs	r0, #24
 205 0072 FFF7FEFF 		bl	I2C_Peripheral_ReadRegister
 206              	.LVL29:
ARM GAS  C:\Users\aless\AppData\Local\Temp\ccnwhxJ6.s 			page 8


 117:main.c        ****         {
 207              		.loc 1 117 0
 208 0076 9DF81330 		ldrb	r3, [sp, #19]	@ zero_extendqisi2
 209 007a 13F0080F 		tst	r3, #8
 210 007e F4D0     		beq	.L17
 120:main.c        ****                                                      OUT_X_L,
 211              		.loc 1 120 0
 212 0080 03AB     		add	r3, sp, #12
 213 0082 0622     		movs	r2, #6
 214 0084 2821     		movs	r1, #40
 215 0086 1820     		movs	r0, #24
 216 0088 FFF7FEFF 		bl	I2C_Peripheral_ReadRegisterMulti
 217              	.LVL30:
 124:main.c        ****             {
 218              		.loc 1 124 0
 219 008c 0028     		cmp	r0, #0
 220 008e 53D1     		bne	.L18
 127:main.c        ****                 OutAcc[1] = (int16_t) (AccelerationData[2] | (AccelerationData[3]<<8))>>4;
 221              		.loc 1 127 0
 222 0090 9DF80C30 		ldrb	r3, [sp, #12]	@ zero_extendqisi2
 223 0094 9DF80D00 		ldrb	r0, [sp, #13]	@ zero_extendqisi2
 224              	.LVL31:
 225 0098 43EA0020 		orr	r0, r3, r0, lsl #8
 128:main.c        ****                 OutAcc[2] = (int16_t) (AccelerationData[4] | (AccelerationData[5]<<8))>>4;
 226              		.loc 1 128 0
 227 009c 9DF80E30 		ldrb	r3, [sp, #14]	@ zero_extendqisi2
 228 00a0 9DF80F50 		ldrb	r5, [sp, #15]	@ zero_extendqisi2
 229 00a4 43EA0525 		orr	r5, r3, r5, lsl #8
 230 00a8 45F30B15 		sbfx	r5, r5, #4, #12
 129:main.c        ****                 
 231              		.loc 1 129 0
 232 00ac 9DF81030 		ldrb	r3, [sp, #16]	@ zero_extendqisi2
 233 00b0 9DF81140 		ldrb	r4, [sp, #17]	@ zero_extendqisi2
 234 00b4 43EA0424 		orr	r4, r3, r4, lsl #8
 235 00b8 44F30B14 		sbfx	r4, r4, #4, #12
 133:main.c        ****                 axes[1].axis = (float) OutAcc[1]*g_CONST/levels_per_g;
 236              		.loc 1 133 0
 237 00bc 40F30B10 		sbfx	r0, r0, #4, #12
 238 00c0 FFF7FEFF 		bl	__aeabi_i2f
 239              	.LVL32:
 240 00c4 FFF7FEFF 		bl	__aeabi_f2d
 241              	.LVL33:
 242 00c8 1DA3     		adr	r3, .L21
 243 00ca D3E90023 		ldrd	r2, [r3]
 244 00ce FFF7FEFF 		bl	__aeabi_dmul
 245              	.LVL34:
 246 00d2 1DA3     		adr	r3, .L21+8
 247 00d4 D3E90023 		ldrd	r2, [r3]
 248 00d8 FFF7FEFF 		bl	__aeabi_ddiv
 249              	.LVL35:
 250 00dc FFF7FEFF 		bl	__aeabi_d2f
 251              	.LVL36:
 252 00e0 0090     		str	r0, [sp]	@ float
 134:main.c        ****                 axes[2].axis = (float) OutAcc[2]*g_CONST/levels_per_g;
 253              		.loc 1 134 0
 254 00e2 2846     		mov	r0, r5
 255 00e4 FFF7FEFF 		bl	__aeabi_i2f
ARM GAS  C:\Users\aless\AppData\Local\Temp\ccnwhxJ6.s 			page 9


 256              	.LVL37:
 257 00e8 FFF7FEFF 		bl	__aeabi_f2d
 258              	.LVL38:
 259 00ec 14A3     		adr	r3, .L21
 260 00ee D3E90023 		ldrd	r2, [r3]
 261 00f2 FFF7FEFF 		bl	__aeabi_dmul
 262              	.LVL39:
 263 00f6 14A3     		adr	r3, .L21+8
 264 00f8 D3E90023 		ldrd	r2, [r3]
 265 00fc FFF7FEFF 		bl	__aeabi_ddiv
 266              	.LVL40:
 267 0100 FFF7FEFF 		bl	__aeabi_d2f
 268              	.LVL41:
 269 0104 0190     		str	r0, [sp, #4]	@ float
 135:main.c        ****                 
 270              		.loc 1 135 0
 271 0106 2046     		mov	r0, r4
 272 0108 FFF7FEFF 		bl	__aeabi_i2f
 273              	.LVL42:
 274 010c FFF7FEFF 		bl	__aeabi_f2d
 275              	.LVL43:
 276 0110 0BA3     		adr	r3, .L21
 277 0112 D3E90023 		ldrd	r2, [r3]
 278 0116 FFF7FEFF 		bl	__aeabi_dmul
 279              	.LVL44:
 280 011a 0BA3     		adr	r3, .L21+8
 281 011c D3E90023 		ldrd	r2, [r3]
 282 0120 FFF7FEFF 		bl	__aeabi_ddiv
 283              	.LVL45:
 284 0124 FFF7FEFF 		bl	__aeabi_d2f
 285              	.LVL46:
 286 0128 0290     		str	r0, [sp, #8]	@ float
 146:main.c        ****             }
 287              		.loc 1 146 0
 288 012a C023     		movs	r3, #192
 289 012c A022     		movs	r2, #160
 290 012e 0C21     		movs	r1, #12
 291 0130 6846     		mov	r0, sp
 292 0132 FFF7FEFF 		bl	UART_Debug_BCP
 293              	.LVL47:
 294 0136 98E7     		b	.L17
 295              	.LVL48:
 296              	.L18:
 150:main.c        ****             }
 297              		.loc 1 150 0
 298 0138 0A48     		ldr	r0, .L21+36
 299              	.LVL49:
 300 013a FFF7FEFF 		bl	UART_Debug_PutString
 301              	.LVL50:
 302 013e 94E7     		b	.L17
 303              	.L22:
 304              		.align	3
 305              	.L21:
 306 0140 77BE9F1A 		.word	446676599
 307 0144 2F9D2340 		.word	1076075823
 308 0148 00000000 		.word	0
 309 014c 00F07F40 		.word	1082126336
ARM GAS  C:\Users\aless\AppData\Local\Temp\ccnwhxJ6.s 			page 10


 310 0150 00000000 		.word	.LC0
 311 0154 20000000 		.word	.LC1
 312 0158 4C000000 		.word	.LC2
 313 015c 88000000 		.word	.LC3
 314 0160 B4000000 		.word	.LC4
 315 0164 F0000000 		.word	.LC5
 316              		.cfi_endproc
 317              	.LFE64:
 318              		.size	main, .-main
 319              		.section	.rodata.str1.4,"aMS",%progbits,1
 320              		.align	2
 321              	.LC0:
 322 0000 44657669 		.ascii	"Device 0x%02X is connected\015\012\000"
 322      63652030 
 322      78253032 
 322      58206973 
 322      20636F6E 
 323 001d 000000   		.space	3
 324              	.LC1:
 325 0020 434F4E54 		.ascii	"CONTROL REGISTER 1 successfully written\015\012\000"
 325      524F4C20 
 325      52454749 
 325      53544552 
 325      20312073 
 326 004a 0000     		.space	2
 327              	.LC2:
 328 004c 4552524F 		.ascii	"ERROR occurred during I2C comm to set control regis"
 328      52206F63 
 328      63757272 
 328      65642064 
 328      7572696E 
 329 007f 74657220 		.ascii	"ter 1\015\012\000"
 329      310D0A00 
 330 0087 00       		.space	1
 331              	.LC3:
 332 0088 434F4E54 		.ascii	"CONTROL REGISTER 4 successfully written\015\012\000"
 332      524F4C20 
 332      52454749 
 332      53544552 
 332      20342073 
 333 00b2 0000     		.space	2
 334              	.LC4:
 335 00b4 4552524F 		.ascii	"ERROR occurred during I2C comm to set control regis"
 335      52206F63 
 335      63757272 
 335      65642064 
 335      7572696E 
 336 00e7 74657220 		.ascii	"ter 4\015\012\000"
 336      340D0A00 
 337 00ef 00       		.space	1
 338              	.LC5:
 339 00f0 4572726F 		.ascii	"Error occurred while acquiring acceleration data\015"
 339      72206F63 
 339      63757272 
 339      65642077 
 339      68696C65 
 340 0121 0A00     		.ascii	"\012\000"
ARM GAS  C:\Users\aless\AppData\Local\Temp\ccnwhxJ6.s 			page 11


 341              		.text
 342              	.Letext0:
 343              		.file 2 "c:\\program files (x86)\\cypress\\psoc creator\\4.3\\psoc creator\\import\\gnu\\arm\\5.4.
 344              		.file 3 "c:\\program files (x86)\\cypress\\psoc creator\\4.3\\psoc creator\\import\\gnu\\arm\\5.4.
 345              		.file 4 "Generated_Source\\PSoC5/cytypes.h"
 346              		.file 5 "Generated_Source\\PSoC5/UART_Debug.h"
 347              		.file 6 "Generated_Source\\PSoC5/core_cm3.h"
 348              		.file 7 "I2C_Interface.h"
 349              		.file 8 "c:\\program files (x86)\\cypress\\psoc creator\\4.3\\psoc creator\\import\\gnu\\arm\\5.4.
 350              		.file 9 "Generated_Source\\PSoC5/CyLib.h"
 351              		.file 10 "ErrorCodes.h"