ARM GAS  C:\Users\aless\AppData\Local\Temp\cc2yCZ7A.s 			page 1


   1              		.syntax unified
   2              		.cpu cortex-m3
   3              		.fpu softvfp
   4              		.eabi_attribute 20, 1
   5              		.eabi_attribute 21, 1
   6              		.eabi_attribute 23, 3
   7              		.eabi_attribute 24, 1
   8              		.eabi_attribute 25, 1
   9              		.eabi_attribute 26, 1
  10              		.eabi_attribute 30, 1
  11              		.eabi_attribute 34, 1
  12              		.eabi_attribute 18, 4
  13              		.thumb
  14              		.syntax unified
  15              		.file	"I2C_Interface.c"
  16              		.text
  17              	.Ltext0:
  18              		.cfi_sections	.debug_frame
  19              		.section	.text.I2C_Peripheral_Start,"ax",%progbits
  20              		.align	2
  21              		.global	I2C_Peripheral_Start
  22              		.thumb
  23              		.thumb_func
  24              		.type	I2C_Peripheral_Start, %function
  25              	I2C_Peripheral_Start:
  26              	.LFB0:
  27              		.file 1 "I2C_Interface.c"
   1:I2C_Interface.c **** /*
   2:I2C_Interface.c **** * This file includes all the required source code to interface
   3:I2C_Interface.c **** * the I2C peripheral.
   4:I2C_Interface.c **** */
   5:I2C_Interface.c **** 
   6:I2C_Interface.c **** /**
   7:I2C_Interface.c **** *   \brief Value returned if device present on I2C bus.
   8:I2C_Interface.c **** */
   9:I2C_Interface.c **** #ifndef DEVICE_CONNECTED
  10:I2C_Interface.c ****     #define DEVICE_CONNECTED 1
  11:I2C_Interface.c **** #endif
  12:I2C_Interface.c **** 
  13:I2C_Interface.c **** /**
  14:I2C_Interface.c **** *   \brief Value returned if device not present on I2C bus.
  15:I2C_Interface.c **** */
  16:I2C_Interface.c **** #ifndef DEVICE_UNCONNECTED
  17:I2C_Interface.c ****     #define DEVICE_UNCONNECTED 0
  18:I2C_Interface.c **** #endif
  19:I2C_Interface.c **** 
  20:I2C_Interface.c **** #include "I2C_Interface.h" 
  21:I2C_Interface.c **** #include "I2C_Master.h"
  22:I2C_Interface.c **** 
  23:I2C_Interface.c **** ErrorCode I2C_Peripheral_Start(void) 
  24:I2C_Interface.c **** {
  28              		.loc 1 24 0
  29              		.cfi_startproc
  30              		@ args = 0, pretend = 0, frame = 0
  31              		@ frame_needed = 0, uses_anonymous_args = 0
  32 0000 08B5     		push	{r3, lr}
  33              		.cfi_def_cfa_offset 8
ARM GAS  C:\Users\aless\AppData\Local\Temp\cc2yCZ7A.s 			page 2


  34              		.cfi_offset 3, -8
  35              		.cfi_offset 14, -4
  25:I2C_Interface.c ****     // Start I2C peripheral
  26:I2C_Interface.c ****     I2C_Master_Start();  
  36              		.loc 1 26 0
  37 0002 FFF7FEFF 		bl	I2C_Master_Start
  38              	.LVL0:
  27:I2C_Interface.c ****     
  28:I2C_Interface.c ****     // Return no error since start function does not return any error
  29:I2C_Interface.c ****     return NO_ERROR;
  30:I2C_Interface.c **** }
  39              		.loc 1 30 0
  40 0006 0020     		movs	r0, #0
  41 0008 08BD     		pop	{r3, pc}
  42              		.cfi_endproc
  43              	.LFE0:
  44              		.size	I2C_Peripheral_Start, .-I2C_Peripheral_Start
  45 000a 00BF     		.section	.text.I2C_Peripheral_Stop,"ax",%progbits
  46              		.align	2
  47              		.global	I2C_Peripheral_Stop
  48              		.thumb
  49              		.thumb_func
  50              		.type	I2C_Peripheral_Stop, %function
  51              	I2C_Peripheral_Stop:
  52              	.LFB1:
  31:I2C_Interface.c **** 
  32:I2C_Interface.c **** 
  33:I2C_Interface.c **** ErrorCode I2C_Peripheral_Stop(void)
  34:I2C_Interface.c **** {
  53              		.loc 1 34 0
  54              		.cfi_startproc
  55              		@ args = 0, pretend = 0, frame = 0
  56              		@ frame_needed = 0, uses_anonymous_args = 0
  57 0000 08B5     		push	{r3, lr}
  58              		.cfi_def_cfa_offset 8
  59              		.cfi_offset 3, -8
  60              		.cfi_offset 14, -4
  35:I2C_Interface.c ****     // Stop I2C peripheral
  36:I2C_Interface.c ****     I2C_Master_Stop();
  61              		.loc 1 36 0
  62 0002 FFF7FEFF 		bl	I2C_Master_Stop
  63              	.LVL1:
  37:I2C_Interface.c ****     // Return no error since stop function does not return any error
  38:I2C_Interface.c ****     return NO_ERROR;
  39:I2C_Interface.c **** }
  64              		.loc 1 39 0
  65 0006 0020     		movs	r0, #0
  66 0008 08BD     		pop	{r3, pc}
  67              		.cfi_endproc
  68              	.LFE1:
  69              		.size	I2C_Peripheral_Stop, .-I2C_Peripheral_Stop
  70 000a 00BF     		.section	.text.I2C_Peripheral_ReadRegister,"ax",%progbits
  71              		.align	2
  72              		.global	I2C_Peripheral_ReadRegister
  73              		.thumb
  74              		.thumb_func
  75              		.type	I2C_Peripheral_ReadRegister, %function
ARM GAS  C:\Users\aless\AppData\Local\Temp\cc2yCZ7A.s 			page 3


  76              	I2C_Peripheral_ReadRegister:
  77              	.LFB2:
  40:I2C_Interface.c **** 
  41:I2C_Interface.c **** /*************************************************************************************************/
  42:I2C_Interface.c **** /*                                         READ ONE BYTE                                         */
  43:I2C_Interface.c **** /*************************************************************************************************/
  44:I2C_Interface.c **** ErrorCode I2C_Peripheral_ReadRegister(uint8_t device_address, 
  45:I2C_Interface.c ****                                       uint8_t register_address,
  46:I2C_Interface.c ****                                       uint8_t* data)
  47:I2C_Interface.c **** {
  78              		.loc 1 47 0
  79              		.cfi_startproc
  80              		@ args = 0, pretend = 0, frame = 0
  81              		@ frame_needed = 0, uses_anonymous_args = 0
  82              	.LVL2:
  83 0000 F8B5     		push	{r3, r4, r5, r6, r7, lr}
  84              		.cfi_def_cfa_offset 24
  85              		.cfi_offset 3, -24
  86              		.cfi_offset 4, -20
  87              		.cfi_offset 5, -16
  88              		.cfi_offset 6, -12
  89              		.cfi_offset 7, -8
  90              		.cfi_offset 14, -4
  91 0002 0646     		mov	r6, r0
  92 0004 0D46     		mov	r5, r1
  93 0006 1746     		mov	r7, r2
  48:I2C_Interface.c ****     // Send start condition
  49:I2C_Interface.c ****     uint8_t error = I2C_Master_MasterSendStart(device_address,I2C_Master_WRITE_XFER_MODE);
  94              		.loc 1 49 0
  95 0008 0021     		movs	r1, #0
  96              	.LVL3:
  97 000a FFF7FEFF 		bl	I2C_Master_MasterSendStart
  98              	.LVL4:
  50:I2C_Interface.c ****     if (error == I2C_Master_MSTR_NO_ERROR)
  99              		.loc 1 50 0
 100 000e 0446     		mov	r4, r0
 101 0010 68B9     		cbnz	r0, .L6
  51:I2C_Interface.c ****     {
  52:I2C_Interface.c ****         // Write address of register to be read
  53:I2C_Interface.c ****         error = I2C_Master_MasterWriteByte(register_address);
 102              		.loc 1 53 0
 103 0012 2846     		mov	r0, r5
 104              	.LVL5:
 105 0014 FFF7FEFF 		bl	I2C_Master_MasterWriteByte
 106              	.LVL6:
  54:I2C_Interface.c ****         if (error == I2C_Master_MSTR_NO_ERROR)
 107              		.loc 1 54 0
 108 0018 0446     		mov	r4, r0
 109 001a 40B9     		cbnz	r0, .L6
  55:I2C_Interface.c ****         {
  56:I2C_Interface.c ****             // Send restart condition
  57:I2C_Interface.c ****             error = I2C_Master_MasterSendRestart(device_address, I2C_Master_READ_XFER_MODE);
 110              		.loc 1 57 0
 111 001c 0121     		movs	r1, #1
 112 001e 3046     		mov	r0, r6
 113              	.LVL7:
 114 0020 FFF7FEFF 		bl	I2C_Master_MasterSendRestart
ARM GAS  C:\Users\aless\AppData\Local\Temp\cc2yCZ7A.s 			page 4


 115              	.LVL8:
  58:I2C_Interface.c ****             if (error == I2C_Master_MSTR_NO_ERROR)
 116              		.loc 1 58 0
 117 0024 0446     		mov	r4, r0
 118 0026 10B9     		cbnz	r0, .L6
  59:I2C_Interface.c ****             {
  60:I2C_Interface.c ****                 // Read data without acknowledgement
  61:I2C_Interface.c ****                 *data = I2C_Master_MasterReadByte(I2C_Master_NAK_DATA);
 119              		.loc 1 61 0
 120 0028 FFF7FEFF 		bl	I2C_Master_MasterReadByte
 121              	.LVL9:
 122 002c 3870     		strb	r0, [r7]
 123              	.L6:
 124              	.LVL10:
  62:I2C_Interface.c ****             }
  63:I2C_Interface.c ****         }
  64:I2C_Interface.c ****     }
  65:I2C_Interface.c ****     // Send stop condition
  66:I2C_Interface.c ****     I2C_Master_MasterSendStop();
 125              		.loc 1 66 0
 126 002e FFF7FEFF 		bl	I2C_Master_MasterSendStop
 127              	.LVL11:
  67:I2C_Interface.c ****     // Return error code
  68:I2C_Interface.c ****     return error ? ERROR : NO_ERROR;
  69:I2C_Interface.c **** }
 128              		.loc 1 69 0
 129 0032 201C     		adds	r0, r4, #0
 130 0034 18BF     		it	ne
 131 0036 0120     		movne	r0, #1
 132 0038 F8BD     		pop	{r3, r4, r5, r6, r7, pc}
 133              		.cfi_endproc
 134              	.LFE2:
 135              		.size	I2C_Peripheral_ReadRegister, .-I2C_Peripheral_ReadRegister
 136 003a 00BF     		.section	.text.I2C_Peripheral_ReadRegisterMulti,"ax",%progbits
 137              		.align	2
 138              		.global	I2C_Peripheral_ReadRegisterMulti
 139              		.thumb
 140              		.thumb_func
 141              		.type	I2C_Peripheral_ReadRegisterMulti, %function
 142              	I2C_Peripheral_ReadRegisterMulti:
 143              	.LFB3:
  70:I2C_Interface.c **** 
  71:I2C_Interface.c **** /*************************************************************************************************/
  72:I2C_Interface.c **** /*                                      READ MULTPLE BYTES                                       */
  73:I2C_Interface.c **** /*************************************************************************************************/
  74:I2C_Interface.c **** ErrorCode I2C_Peripheral_ReadRegisterMulti(uint8_t device_address,
  75:I2C_Interface.c ****                                            uint8_t register_address,
  76:I2C_Interface.c ****                                            uint8_t register_count,
  77:I2C_Interface.c ****                                            uint8_t* data)
  78:I2C_Interface.c **** {
 144              		.loc 1 78 0
 145              		.cfi_startproc
 146              		@ args = 0, pretend = 0, frame = 0
 147              		@ frame_needed = 0, uses_anonymous_args = 0
 148              	.LVL12:
 149 0000 2DE9F041 		push	{r4, r5, r6, r7, r8, lr}
 150              		.cfi_def_cfa_offset 24
ARM GAS  C:\Users\aless\AppData\Local\Temp\cc2yCZ7A.s 			page 5


 151              		.cfi_offset 4, -24
 152              		.cfi_offset 5, -20
 153              		.cfi_offset 6, -16
 154              		.cfi_offset 7, -12
 155              		.cfi_offset 8, -8
 156              		.cfi_offset 14, -4
 157 0004 8046     		mov	r8, r0
 158 0006 0C46     		mov	r4, r1
 159 0008 1646     		mov	r6, r2
 160 000a 1F46     		mov	r7, r3
  79:I2C_Interface.c ****     // Send start condition (W)
  80:I2C_Interface.c ****     uint8_t error = I2C_Master_MasterSendStart(device_address,I2C_Master_WRITE_XFER_MODE);
 161              		.loc 1 80 0
 162 000c 0021     		movs	r1, #0
 163              	.LVL13:
 164 000e FFF7FEFF 		bl	I2C_Master_MasterSendStart
 165              	.LVL14:
  81:I2C_Interface.c ****     if (error == I2C_Master_MSTR_NO_ERROR)
 166              		.loc 1 81 0
 167 0012 0546     		mov	r5, r0
 168 0014 E0B9     		cbnz	r0, .L9
  82:I2C_Interface.c ****     {
  83:I2C_Interface.c ****         // Write address of register to be read with the MSB equal to 1 (autoincrement)
  84:I2C_Interface.c ****         error = I2C_Master_MasterWriteByte(register_address|0x80);
 169              		.loc 1 84 0
 170 0016 44F08000 		orr	r0, r4, #128
 171              	.LVL15:
 172 001a FFF7FEFF 		bl	I2C_Master_MasterWriteByte
 173              	.LVL16:
  85:I2C_Interface.c ****         if (error == I2C_Master_MSTR_NO_ERROR)
 174              		.loc 1 85 0
 175 001e 0546     		mov	r5, r0
 176 0020 B0B9     		cbnz	r0, .L9
  86:I2C_Interface.c ****         {
  87:I2C_Interface.c ****             // Send restart condition (R)
  88:I2C_Interface.c ****             error = I2C_Master_MasterSendRestart(device_address, I2C_Master_READ_XFER_MODE);
 177              		.loc 1 88 0
 178 0022 0121     		movs	r1, #1
 179 0024 4046     		mov	r0, r8
 180              	.LVL17:
 181 0026 FFF7FEFF 		bl	I2C_Master_MasterSendRestart
 182              	.LVL18:
  89:I2C_Interface.c ****             if (error == I2C_Master_MSTR_NO_ERROR)
 183              		.loc 1 89 0
 184 002a 0546     		mov	r5, r0
 185 002c 38B1     		cbz	r0, .L12
 186 002e 0FE0     		b	.L9
 187              	.LVL19:
 188              	.L11:
 189              	.LBB2:
  90:I2C_Interface.c ****             {
  91:I2C_Interface.c ****                 // Continue reading until we have register to read
  92:I2C_Interface.c ****                 for(uint8_t pBuffPtr = 0 ; pBuffPtr<register_count-1; pBuffPtr++)
  93:I2C_Interface.c ****                 {
  94:I2C_Interface.c ****                     // Read byte with acknowledgement
  95:I2C_Interface.c ****                     *(data+pBuffPtr) = I2C_Master_MasterReadByte(I2C_Master_ACK_DATA);
 190              		.loc 1 95 0 discriminator 3
ARM GAS  C:\Users\aless\AppData\Local\Temp\cc2yCZ7A.s 			page 6


 191 0030 0120     		movs	r0, #1
 192 0032 FFF7FEFF 		bl	I2C_Master_MasterReadByte
 193              	.LVL20:
 194 0036 3855     		strb	r0, [r7, r4]
  92:I2C_Interface.c ****                 {
 195              		.loc 1 92 0 discriminator 3
 196 0038 0134     		adds	r4, r4, #1
 197              	.LVL21:
 198 003a E4B2     		uxtb	r4, r4
 199              	.LVL22:
 200 003c 00E0     		b	.L10
 201              	.LVL23:
 202              	.L12:
 203              	.LBE2:
 204 003e 0024     		movs	r4, #0
 205              	.LVL24:
 206              	.L10:
 207              	.LBB3:
  92:I2C_Interface.c ****                 {
 208              		.loc 1 92 0 is_stmt 0 discriminator 1
 209 0040 731E     		subs	r3, r6, #1
 210 0042 9C42     		cmp	r4, r3
 211 0044 F4DB     		blt	.L11
 212              	.LBE3:
  96:I2C_Interface.c ****                 }
  97:I2C_Interface.c ****                 // Read last byte without acknowledgement
  98:I2C_Interface.c ****                 *(data+register_count-1) = I2C_Master_MasterReadByte(I2C_Master_NAK_DATA);
 213              		.loc 1 98 0 is_stmt 1
 214 0046 1E46     		mov	r6, r3
 215 0048 0020     		movs	r0, #0
 216 004a FFF7FEFF 		bl	I2C_Master_MasterReadByte
 217              	.LVL25:
 218 004e B855     		strb	r0, [r7, r6]
 219              	.LVL26:
 220              	.L9:
  99:I2C_Interface.c ****             }
 100:I2C_Interface.c ****         }
 101:I2C_Interface.c ****     }
 102:I2C_Interface.c ****     // Send stop condition
 103:I2C_Interface.c ****     I2C_Master_MasterSendStop();
 221              		.loc 1 103 0
 222 0050 FFF7FEFF 		bl	I2C_Master_MasterSendStop
 223              	.LVL27:
 104:I2C_Interface.c ****     // Return error code
 105:I2C_Interface.c ****     return error ? ERROR : NO_ERROR;
 106:I2C_Interface.c **** }
 224              		.loc 1 106 0
 225 0054 281C     		adds	r0, r5, #0
 226 0056 18BF     		it	ne
 227 0058 0120     		movne	r0, #1
 228 005a BDE8F081 		pop	{r4, r5, r6, r7, r8, pc}
 229              		.cfi_endproc
 230              	.LFE3:
 231              		.size	I2C_Peripheral_ReadRegisterMulti, .-I2C_Peripheral_ReadRegisterMulti
 232 005e 00BF     		.section	.text.I2C_Peripheral_WriteRegister,"ax",%progbits
 233              		.align	2
 234              		.global	I2C_Peripheral_WriteRegister
ARM GAS  C:\Users\aless\AppData\Local\Temp\cc2yCZ7A.s 			page 7


 235              		.thumb
 236              		.thumb_func
 237              		.type	I2C_Peripheral_WriteRegister, %function
 238              	I2C_Peripheral_WriteRegister:
 239              	.LFB4:
 107:I2C_Interface.c **** 
 108:I2C_Interface.c **** /*************************************************************************************************/
 109:I2C_Interface.c **** /*                                         WRITE ONE BYTE                                        */
 110:I2C_Interface.c **** /*************************************************************************************************/
 111:I2C_Interface.c **** ErrorCode I2C_Peripheral_WriteRegister(uint8_t device_address,
 112:I2C_Interface.c ****                                        uint8_t register_address,
 113:I2C_Interface.c ****                                        uint8_t data)
 114:I2C_Interface.c **** {
 240              		.loc 1 114 0
 241              		.cfi_startproc
 242              		@ args = 0, pretend = 0, frame = 0
 243              		@ frame_needed = 0, uses_anonymous_args = 0
 244              	.LVL28:
 245 0000 70B5     		push	{r4, r5, r6, lr}
 246              		.cfi_def_cfa_offset 16
 247              		.cfi_offset 4, -16
 248              		.cfi_offset 5, -12
 249              		.cfi_offset 6, -8
 250              		.cfi_offset 14, -4
 251 0002 0D46     		mov	r5, r1
 252 0004 1646     		mov	r6, r2
 115:I2C_Interface.c ****     // Send start condition (W)
 116:I2C_Interface.c ****     uint8_t error = I2C_Master_MasterSendStart(device_address, I2C_Master_WRITE_XFER_MODE);
 253              		.loc 1 116 0
 254 0006 0021     		movs	r1, #0
 255              	.LVL29:
 256 0008 FFF7FEFF 		bl	I2C_Master_MasterSendStart
 257              	.LVL30:
 117:I2C_Interface.c ****     if (error == I2C_Master_MSTR_NO_ERROR)
 258              		.loc 1 117 0
 259 000c 0446     		mov	r4, r0
 260 000e 40B9     		cbnz	r0, .L15
 118:I2C_Interface.c ****     {
 119:I2C_Interface.c ****         // Write register address
 120:I2C_Interface.c ****         error = I2C_Master_MasterWriteByte(register_address);
 261              		.loc 1 120 0
 262 0010 2846     		mov	r0, r5
 263              	.LVL31:
 264 0012 FFF7FEFF 		bl	I2C_Master_MasterWriteByte
 265              	.LVL32:
 121:I2C_Interface.c ****         if (error == I2C_Master_MSTR_NO_ERROR)
 266              		.loc 1 121 0
 267 0016 0446     		mov	r4, r0
 268 0018 18B9     		cbnz	r0, .L15
 122:I2C_Interface.c ****         {
 123:I2C_Interface.c ****             // Write byte of interest
 124:I2C_Interface.c ****             error = I2C_Master_MasterWriteByte(data);
 269              		.loc 1 124 0
 270 001a 3046     		mov	r0, r6
 271              	.LVL33:
 272 001c FFF7FEFF 		bl	I2C_Master_MasterWriteByte
 273              	.LVL34:
ARM GAS  C:\Users\aless\AppData\Local\Temp\cc2yCZ7A.s 			page 8


 274 0020 0446     		mov	r4, r0
 275              	.LVL35:
 276              	.L15:
 125:I2C_Interface.c ****         }
 126:I2C_Interface.c ****     }
 127:I2C_Interface.c ****     // Send stop condition
 128:I2C_Interface.c ****     I2C_Master_MasterSendStop();
 277              		.loc 1 128 0
 278 0022 FFF7FEFF 		bl	I2C_Master_MasterSendStop
 279              	.LVL36:
 129:I2C_Interface.c ****     // Return error code
 130:I2C_Interface.c ****     return error ? ERROR : NO_ERROR;
 131:I2C_Interface.c **** }
 280              		.loc 1 131 0
 281 0026 201C     		adds	r0, r4, #0
 282 0028 18BF     		it	ne
 283 002a 0120     		movne	r0, #1
 284 002c 70BD     		pop	{r4, r5, r6, pc}
 285              		.cfi_endproc
 286              	.LFE4:
 287              		.size	I2C_Peripheral_WriteRegister, .-I2C_Peripheral_WriteRegister
 288 002e 00BF     		.section	.text.I2C_Peripheral_WriteRegisterMulti,"ax",%progbits
 289              		.align	2
 290              		.global	I2C_Peripheral_WriteRegisterMulti
 291              		.thumb
 292              		.thumb_func
 293              		.type	I2C_Peripheral_WriteRegisterMulti, %function
 294              	I2C_Peripheral_WriteRegisterMulti:
 295              	.LFB5:
 132:I2C_Interface.c **** 
 133:I2C_Interface.c **** /*************************************************************************************************/
 134:I2C_Interface.c **** /*                                      WRITE MULTPLE BYTES                                      */
 135:I2C_Interface.c **** /*************************************************************************************************/
 136:I2C_Interface.c **** ErrorCode I2C_Peripheral_WriteRegisterMulti(uint8_t device_address,
 137:I2C_Interface.c ****                                         uint8_t register_address,
 138:I2C_Interface.c ****                                         uint8_t register_count,
 139:I2C_Interface.c ****                                         uint8_t* data)
 140:I2C_Interface.c **** {
 296              		.loc 1 140 0
 297              		.cfi_startproc
 298              		@ args = 0, pretend = 0, frame = 0
 299              		@ frame_needed = 0, uses_anonymous_args = 0
 300              	.LVL37:
 301 0000 F8B5     		push	{r3, r4, r5, r6, r7, lr}
 302              		.cfi_def_cfa_offset 24
 303              		.cfi_offset 3, -24
 304              		.cfi_offset 4, -20
 305              		.cfi_offset 5, -16
 306              		.cfi_offset 6, -12
 307              		.cfi_offset 7, -8
 308              		.cfi_offset 14, -4
 309 0002 0C46     		mov	r4, r1
 310 0004 1646     		mov	r6, r2
 311 0006 1F46     		mov	r7, r3
 141:I2C_Interface.c ****     // Send start condition (W)
 142:I2C_Interface.c ****     uint8_t error = I2C_Master_MasterSendStart(device_address, I2C_Master_WRITE_XFER_MODE);
 312              		.loc 1 142 0
ARM GAS  C:\Users\aless\AppData\Local\Temp\cc2yCZ7A.s 			page 9


 313 0008 0021     		movs	r1, #0
 314              	.LVL38:
 315 000a FFF7FEFF 		bl	I2C_Master_MasterSendStart
 316              	.LVL39:
 143:I2C_Interface.c ****     if (error == I2C_Master_MSTR_NO_ERROR)
 317              		.loc 1 143 0
 318 000e 0546     		mov	r5, r0
 319 0010 90B9     		cbnz	r0, .L18
 144:I2C_Interface.c ****     {
 145:I2C_Interface.c ****         // Write register address to be read
 146:I2C_Interface.c ****         error = I2C_Master_MasterWriteByte(register_address|0x80);
 320              		.loc 1 146 0
 321 0012 44F08000 		orr	r0, r4, #128
 322              	.LVL40:
 323 0016 FFF7FEFF 		bl	I2C_Master_MasterWriteByte
 324              	.LVL41:
 147:I2C_Interface.c ****         if (error == I2C_Master_MSTR_NO_ERROR)
 325              		.loc 1 147 0
 326 001a 0546     		mov	r5, r0
 327 001c 38B1     		cbz	r0, .L21
 328              	.LBB4:
 329 001e 0BE0     		b	.L18
 330              	.LVL42:
 331              	.L20:
 148:I2C_Interface.c ****         {
 149:I2C_Interface.c ****             // Continue writing until we have data to write
 150:I2C_Interface.c ****             for(uint8_t pBuffPtr = 0 ;
 151:I2C_Interface.c ****                 pBuffPtr<register_count && error == I2C_Master_MSTR_NO_ERROR;
 152:I2C_Interface.c ****                 pBuffPtr++)
 153:I2C_Interface.c ****             {
 154:I2C_Interface.c ****                 // Write byte
 155:I2C_Interface.c ****                 error = I2C_Master_MasterWriteByte(*(data+pBuffPtr));
 332              		.loc 1 155 0
 333 0020 385D     		ldrb	r0, [r7, r4]	@ zero_extendqisi2
 334 0022 FFF7FEFF 		bl	I2C_Master_MasterWriteByte
 335              	.LVL43:
 336 0026 0546     		mov	r5, r0
 337              	.LVL44:
 152:I2C_Interface.c ****             {
 338              		.loc 1 152 0
 339 0028 0134     		adds	r4, r4, #1
 340              	.LVL45:
 341 002a E4B2     		uxtb	r4, r4
 342              	.LVL46:
 343 002c 00E0     		b	.L19
 344              	.LVL47:
 345              	.L21:
 346              	.LBE4:
 347 002e 0024     		movs	r4, #0
 348              	.LVL48:
 349              	.L19:
 350              	.LBB5:
 150:I2C_Interface.c ****                 pBuffPtr<register_count && error == I2C_Master_MSTR_NO_ERROR;
 351              		.loc 1 150 0 discriminator 1
 352 0030 B442     		cmp	r4, r6
 353 0032 01D2     		bcs	.L18
 151:I2C_Interface.c ****                 pBuffPtr++)
ARM GAS  C:\Users\aless\AppData\Local\Temp\cc2yCZ7A.s 			page 10


 354              		.loc 1 151 0
 355 0034 002D     		cmp	r5, #0
 356 0036 F3D0     		beq	.L20
 357              	.LVL49:
 358              	.L18:
 359              	.LBE5:
 156:I2C_Interface.c ****             }
 157:I2C_Interface.c ****         }
 158:I2C_Interface.c ****     }
 159:I2C_Interface.c ****     // Sends immediate stop condition in case something didn't work out correctly
 160:I2C_Interface.c ****     I2C_Master_MasterSendStop();
 360              		.loc 1 160 0
 361 0038 FFF7FEFF 		bl	I2C_Master_MasterSendStop
 362              	.LVL50:
 161:I2C_Interface.c ****     // Return error code
 162:I2C_Interface.c ****     return error ? ERROR : NO_ERROR;
 163:I2C_Interface.c **** }
 363              		.loc 1 163 0
 364 003c 281C     		adds	r0, r5, #0
 365 003e 18BF     		it	ne
 366 0040 0120     		movne	r0, #1
 367 0042 F8BD     		pop	{r3, r4, r5, r6, r7, pc}
 368              		.cfi_endproc
 369              	.LFE5:
 370              		.size	I2C_Peripheral_WriteRegisterMulti, .-I2C_Peripheral_WriteRegisterMulti
 371              		.section	.text.I2C_Peripheral_IsDeviceConnected,"ax",%progbits
 372              		.align	2
 373              		.global	I2C_Peripheral_IsDeviceConnected
 374              		.thumb
 375              		.thumb_func
 376              		.type	I2C_Peripheral_IsDeviceConnected, %function
 377              	I2C_Peripheral_IsDeviceConnected:
 378              	.LFB6:
 164:I2C_Interface.c **** 
 165:I2C_Interface.c **** 
 166:I2C_Interface.c **** uint8_t I2C_Peripheral_IsDeviceConnected(uint8_t device_address)
 167:I2C_Interface.c **** {
 379              		.loc 1 167 0
 380              		.cfi_startproc
 381              		@ args = 0, pretend = 0, frame = 0
 382              		@ frame_needed = 0, uses_anonymous_args = 0
 383              	.LVL51:
 384 0000 10B5     		push	{r4, lr}
 385              		.cfi_def_cfa_offset 8
 386              		.cfi_offset 4, -8
 387              		.cfi_offset 14, -4
 168:I2C_Interface.c ****     // Send a start condition followed by a stop condition
 169:I2C_Interface.c ****     uint8_t error = I2C_Master_MasterSendStart(device_address, I2C_Master_WRITE_XFER_MODE);
 388              		.loc 1 169 0
 389 0002 0021     		movs	r1, #0
 390 0004 FFF7FEFF 		bl	I2C_Master_MasterSendStart
 391              	.LVL52:
 392 0008 0446     		mov	r4, r0
 393              	.LVL53:
 170:I2C_Interface.c ****     I2C_Master_MasterSendStop();
 394              		.loc 1 170 0
 395 000a FFF7FEFF 		bl	I2C_Master_MasterSendStop
ARM GAS  C:\Users\aless\AppData\Local\Temp\cc2yCZ7A.s 			page 11


 396              	.LVL54:
 171:I2C_Interface.c ****     // If no error generated during stop, device is connected
 172:I2C_Interface.c ****     if (error == I2C_Master_MSTR_NO_ERROR)
 397              		.loc 1 172 0
 398 000e 0CB9     		cbnz	r4, .L25
 173:I2C_Interface.c ****     {
 174:I2C_Interface.c ****         return DEVICE_CONNECTED;
 399              		.loc 1 174 0
 400 0010 0120     		movs	r0, #1
 401 0012 10BD     		pop	{r4, pc}
 402              	.LVL55:
 403              	.L25:
 175:I2C_Interface.c ****     }
 176:I2C_Interface.c ****     return DEVICE_UNCONNECTED;
 404              		.loc 1 176 0
 405 0014 0020     		movs	r0, #0
 177:I2C_Interface.c **** }
 406              		.loc 1 177 0
 407 0016 10BD     		pop	{r4, pc}
 408              		.cfi_endproc
 409              	.LFE6:
 410              		.size	I2C_Peripheral_IsDeviceConnected, .-I2C_Peripheral_IsDeviceConnected
 411              		.text
 412              	.Letext0:
 413              		.file 2 "c:\\program files (x86)\\cypress\\psoc creator\\4.3\\psoc creator\\import\\gnu\\arm\\5.4.
 414              		.file 3 "c:\\program files (x86)\\cypress\\psoc creator\\4.3\\psoc creator\\import\\gnu\\arm\\5.4.
 415              		.file 4 "ErrorCodes.h"
 416              		.file 5 "Generated_Source\\PSoC5/I2C_Master.h"